
a.out:     file format elf64-x86-64


Disassembly of section .init:

0000000000400408 <_init>:
  400408:	48 83 ec 08          	sub    $0x8,%rsp
  40040c:	48 8b 05 e5 0b 20 00 	mov    0x200be5(%rip),%rax        # 600ff8 <_DYNAMIC+0x1d0>
  400413:	48 85 c0             	test   %rax,%rax
  400416:	74 05                	je     40041d <_init+0x15>
  400418:	e8 53 00 00 00       	callq  400470 <__libc_start_main@plt+0x10>
  40041d:	48 83 c4 08          	add    $0x8,%rsp
  400421:	c3                   	retq   

Disassembly of section .plt:

0000000000400430 <puts@plt-0x10>:
  400430:	ff 35 d2 0b 20 00    	pushq  0x200bd2(%rip)        # 601008 <_GLOBAL_OFFSET_TABLE_+0x8>
  400436:	ff 25 d4 0b 20 00    	jmpq   *0x200bd4(%rip)        # 601010 <_GLOBAL_OFFSET_TABLE_+0x10>
  40043c:	0f 1f 40 00          	nopl   0x0(%rax)

0000000000400440 <puts@plt>:
  400440:	ff 25 d2 0b 20 00    	jmpq   *0x200bd2(%rip)        # 601018 <_GLOBAL_OFFSET_TABLE_+0x18>
  400446:	68 00 00 00 00       	pushq  $0x0
  40044b:	e9 e0 ff ff ff       	jmpq   400430 <_init+0x28>

0000000000400450 <printf@plt>:
  400450:	ff 25 ca 0b 20 00    	jmpq   *0x200bca(%rip)        # 601020 <_GLOBAL_OFFSET_TABLE_+0x20>
  400456:	68 01 00 00 00       	pushq  $0x1
  40045b:	e9 d0 ff ff ff       	jmpq   400430 <_init+0x28>

0000000000400460 <__libc_start_main@plt>:
  400460:	ff 25 c2 0b 20 00    	jmpq   *0x200bc2(%rip)        # 601028 <_GLOBAL_OFFSET_TABLE_+0x28>
  400466:	68 02 00 00 00       	pushq  $0x2
  40046b:	e9 c0 ff ff ff       	jmpq   400430 <_init+0x28>

Disassembly of section .plt.got:

0000000000400470 <.plt.got>:
  400470:	ff 25 82 0b 20 00    	jmpq   *0x200b82(%rip)        # 600ff8 <_DYNAMIC+0x1d0>
  400476:	66 90                	xchg   %ax,%ax

Disassembly of section .text:

0000000000400480 <_start>:
  400480:	31 ed                	xor    %ebp,%ebp
  400482:	49 89 d1             	mov    %rdx,%r9
  400485:	5e                   	pop    %rsi
  400486:	48 89 e2             	mov    %rsp,%rdx
  400489:	48 83 e4 f0          	and    $0xfffffffffffffff0,%rsp
  40048d:	50                   	push   %rax
  40048e:	54                   	push   %rsp
  40048f:	49 c7 c0 90 06 40 00 	mov    $0x400690,%r8
  400496:	48 c7 c1 20 06 40 00 	mov    $0x400620,%rcx
  40049d:	48 c7 c7 99 05 40 00 	mov    $0x400599,%rdi
  4004a4:	e8 b7 ff ff ff       	callq  400460 <__libc_start_main@plt>
  4004a9:	f4                   	hlt    
  4004aa:	66 0f 1f 44 00 00    	nopw   0x0(%rax,%rax,1)

00000000004004b0 <deregister_tm_clones>:
  4004b0:	b8 4f 10 60 00       	mov    $0x60104f,%eax
  4004b5:	55                   	push   %rbp
  4004b6:	48 2d 48 10 60 00    	sub    $0x601048,%rax
  4004bc:	48 83 f8 0e          	cmp    $0xe,%rax
  4004c0:	48 89 e5             	mov    %rsp,%rbp
  4004c3:	77 02                	ja     4004c7 <deregister_tm_clones+0x17>
  4004c5:	5d                   	pop    %rbp
  4004c6:	c3                   	retq   
  4004c7:	b8 00 00 00 00       	mov    $0x0,%eax
  4004cc:	48 85 c0             	test   %rax,%rax
  4004cf:	74 f4                	je     4004c5 <deregister_tm_clones+0x15>
  4004d1:	5d                   	pop    %rbp
  4004d2:	bf 48 10 60 00       	mov    $0x601048,%edi
  4004d7:	ff e0                	jmpq   *%rax
  4004d9:	0f 1f 80 00 00 00 00 	nopl   0x0(%rax)

00000000004004e0 <register_tm_clones>:
  4004e0:	b8 48 10 60 00       	mov    $0x601048,%eax
  4004e5:	55                   	push   %rbp
  4004e6:	48 2d 48 10 60 00    	sub    $0x601048,%rax
  4004ec:	48 c1 f8 03          	sar    $0x3,%rax
  4004f0:	48 89 e5             	mov    %rsp,%rbp
  4004f3:	48 89 c2             	mov    %rax,%rdx
  4004f6:	48 c1 ea 3f          	shr    $0x3f,%rdx
  4004fa:	48 01 d0             	add    %rdx,%rax
  4004fd:	48 d1 f8             	sar    %rax
  400500:	75 02                	jne    400504 <register_tm_clones+0x24>
  400502:	5d                   	pop    %rbp
  400503:	c3                   	retq   
  400504:	ba 00 00 00 00       	mov    $0x0,%edx
  400509:	48 85 d2             	test   %rdx,%rdx
  40050c:	74 f4                	je     400502 <register_tm_clones+0x22>
  40050e:	5d                   	pop    %rbp
  40050f:	48 89 c6             	mov    %rax,%rsi
  400512:	bf 48 10 60 00       	mov    $0x601048,%edi
  400517:	ff e2                	jmpq   *%rdx
  400519:	0f 1f 80 00 00 00 00 	nopl   0x0(%rax)

0000000000400520 <__do_global_dtors_aux>:
  400520:	80 3d 21 0b 20 00 00 	cmpb   $0x0,0x200b21(%rip)        # 601048 <__TMC_END__>
  400527:	75 11                	jne    40053a <__do_global_dtors_aux+0x1a>
  400529:	55                   	push   %rbp
  40052a:	48 89 e5             	mov    %rsp,%rbp
  40052d:	e8 7e ff ff ff       	callq  4004b0 <deregister_tm_clones>
  400532:	5d                   	pop    %rbp
  400533:	c6 05 0e 0b 20 00 01 	movb   $0x1,0x200b0e(%rip)        # 601048 <__TMC_END__>
  40053a:	f3 c3                	repz retq 
  40053c:	0f 1f 40 00          	nopl   0x0(%rax)

0000000000400540 <frame_dummy>:
  400540:	48 83 3d d8 08 20 00 	cmpq   $0x0,0x2008d8(%rip)        # 600e20 <__JCR_END__>
  400547:	00 
  400548:	74 1e                	je     400568 <frame_dummy+0x28>
  40054a:	b8 00 00 00 00       	mov    $0x0,%eax
  40054f:	48 85 c0             	test   %rax,%rax
  400552:	74 14                	je     400568 <frame_dummy+0x28>
  400554:	55                   	push   %rbp
  400555:	bf 20 0e 60 00       	mov    $0x600e20,%edi
  40055a:	48 89 e5             	mov    %rsp,%rbp
  40055d:	ff d0                	callq  *%rax
  40055f:	5d                   	pop    %rbp
  400560:	e9 7b ff ff ff       	jmpq   4004e0 <register_tm_clones>
  400565:	0f 1f 00             	nopl   (%rax)
  400568:	e9 73 ff ff ff       	jmpq   4004e0 <register_tm_clones>
  40056d:	21 b6 d2 68 00 00    	and    %esi,0x68d2(%rsi)
	...

0000000000400575 <zet>:
  400575:	55                   	push   %rbp
  400576:	48 89 e5             	mov    %rsp,%rbp
  400579:	89 7d fc             	mov    %edi,-0x4(%rbp)
  40057c:	f2 0f 11 45 f0       	movsd  %xmm0,-0x10(%rbp)
  400581:	f2 0f 2a 45 fc       	cvtsi2sdl -0x4(%rbp),%xmm0
  400586:	f2 0f 58 45 f0       	addsd  -0x10(%rbp),%xmm0
  40058b:	f2 0f 2c c0          	cvttsd2si %xmm0,%eax
  40058f:	5d                   	pop    %rbp
  400590:	c3                   	retq   
  400591:	48 cd 5d             	rex.W int $0x5d
  400594:	65 00 00             	add    %al,%gs:(%rax)
	...

0000000000400599 <main>:
  400599:	55                   	push   %rbp
  40059a:	48 89 e5             	mov    %rsp,%rbp
  40059d:	48 83 ec 10          	sub    $0x10,%rsp
  4005a1:	c7 45 f4 02 00 00 00 	movl   $0x2,-0xc(%rbp)
  4005a8:	48 c7 45 f8 75 05 40 	movq   $0x400575,-0x8(%rbp)
  4005af:	00 
  4005b0:	48 c7 05 95 0a 20 00 	movq   $0x400440,0x200a95(%rip)        # 601050 <gpf>
  4005b7:	40 04 40 00 
  4005bb:	8b 05 7f 0a 20 00    	mov    0x200a7f(%rip),%eax        # 601040 <global>
  4005c1:	f2 0f 2a c0          	cvtsi2sd %eax,%xmm0
  4005c5:	8b 55 f4             	mov    -0xc(%rbp),%edx
  4005c8:	48 8b 45 f8          	mov    -0x8(%rbp),%rax
  4005cc:	48 8b 40 f8          	mov    -0x8(%rax),%rax
  4005d0:	48 3d 21 b6 d2 68    	cmp    $0x68d2b621,%rax
  4005d6:	75 42                	jne    40061a <main+0x81>
  4005d8:	48 8b 45 f8          	mov    -0x8(%rbp),%rax
  4005dc:	89 d7                	mov    %edx,%edi
  4005de:	ff d0                	callq  *%rax
  4005e0:	89 45 f4             	mov    %eax,-0xc(%rbp)
  4005e3:	48 8b 05 66 0a 20 00 	mov    0x200a66(%rip),%rax        # 601050 <gpf>
  4005ea:	48 8b 50 f8          	mov    -0x8(%rax),%rdx
  4005ee:	48 81 fa cc 86 40 43 	cmp    $0x434086cc,%rdx
  4005f5:	75 25                	jne    40061c <main+0x83>
  4005f7:	bf a4 06 40 00       	mov    $0x4006a4,%edi
  4005fc:	ff d0                	callq  *%rax
  4005fe:	8b 45 f4             	mov    -0xc(%rbp),%eax
  400601:	89 c6                	mov    %eax,%esi
  400603:	bf ac 06 40 00       	mov    $0x4006ac,%edi
  400608:	b8 00 00 00 00       	mov    $0x0,%eax
  40060d:	e8 3e fe ff ff       	callq  400450 <printf@plt>
  400612:	8b 45 f4             	mov    -0xc(%rbp),%eax
  400615:	83 c0 02             	add    $0x2,%eax
  400618:	eb 04                	jmp    40061e <main+0x85>
  40061a:	0f 0b                	ud2    
  40061c:	0f 0b                	ud2    
  40061e:	c9                   	leaveq 
  40061f:	c3                   	retq   

0000000000400620 <__libc_csu_init>:
  400620:	41 57                	push   %r15
  400622:	41 56                	push   %r14
  400624:	41 89 ff             	mov    %edi,%r15d
  400627:	41 55                	push   %r13
  400629:	41 54                	push   %r12
  40062b:	4c 8d 25 de 07 20 00 	lea    0x2007de(%rip),%r12        # 600e10 <__frame_dummy_init_array_entry>
  400632:	55                   	push   %rbp
  400633:	48 8d 2d de 07 20 00 	lea    0x2007de(%rip),%rbp        # 600e18 <__init_array_end>
  40063a:	53                   	push   %rbx
  40063b:	49 89 f6             	mov    %rsi,%r14
  40063e:	49 89 d5             	mov    %rdx,%r13
  400641:	4c 29 e5             	sub    %r12,%rbp
  400644:	48 83 ec 08          	sub    $0x8,%rsp
  400648:	48 c1 fd 03          	sar    $0x3,%rbp
  40064c:	e8 b7 fd ff ff       	callq  400408 <_init>
  400651:	48 85 ed             	test   %rbp,%rbp
  400654:	74 20                	je     400676 <__libc_csu_init+0x56>
  400656:	31 db                	xor    %ebx,%ebx
  400658:	0f 1f 84 00 00 00 00 	nopl   0x0(%rax,%rax,1)
  40065f:	00 
  400660:	4c 89 ea             	mov    %r13,%rdx
  400663:	4c 89 f6             	mov    %r14,%rsi
  400666:	44 89 ff             	mov    %r15d,%edi
  400669:	41 ff 14 dc          	callq  *(%r12,%rbx,8)
  40066d:	48 83 c3 01          	add    $0x1,%rbx
  400671:	48 39 eb             	cmp    %rbp,%rbx
  400674:	75 ea                	jne    400660 <__libc_csu_init+0x40>
  400676:	48 83 c4 08          	add    $0x8,%rsp
  40067a:	5b                   	pop    %rbx
  40067b:	5d                   	pop    %rbp
  40067c:	41 5c                	pop    %r12
  40067e:	41 5d                	pop    %r13
  400680:	41 5e                	pop    %r14
  400682:	41 5f                	pop    %r15
  400684:	c3                   	retq   
  400685:	90                   	nop
  400686:	66 2e 0f 1f 84 00 00 	nopw   %cs:0x0(%rax,%rax,1)
  40068d:	00 00 00 

0000000000400690 <__libc_csu_fini>:
  400690:	f3 c3                	repz retq 

Disassembly of section .fini:

0000000000400694 <_fini>:
  400694:	48 83 ec 08          	sub    $0x8,%rsp
  400698:	48 83 c4 08          	add    $0x8,%rsp
  40069c:	c3                   	retq   
